target datalayout = "e-m:e-p270:32:32-p271:32:32-p272:64:64-i64:64-i128:128-f80:128-n8:16:32:64-S128"
target triple = "x86_64-pc-linux-gnu"

%"class.cv::Mat" = type { i32, i32, i32, i32, ptr, ptr, ptr, ptr, ptr, ptr, %"struct.cv::MatSize", %"struct.cv::MatStep" }
%"struct.cv::MatSize" = type { ptr }
%"struct.cv::MatStep" = type { ptr, [2 x i64] }
%"struct.std::_Vector_base" = type { %"struct.std::_Vector_base<int, std::allocator<int>>::_Vector_impl" }
%"struct.std::_Vector_base<int, std::allocator<int>>::_Vector_impl" = type { %"struct.std::_Vector_base<int, std::allocator<int>>::_Vector_impl_data" }
%"struct.std::_Vector_base<int, std::allocator<int>>::_Vector_impl_data" = type { ptr, ptr, ptr }

; Function Attrs: mustprogress nounwind uwtable
define linkonce_odr hidden noundef ptr @_ZNKSt6vectorIiSaIiEE11_M_data_ptrIiEEPT_S4_(ptr noundef nonnull align 8 dereferenceable(24) %0, ptr noundef %1) #0 comdat align 2 {
  %3 = alloca ptr, align 8
  %4 = alloca ptr, align 8
  store ptr %0, ptr %3, align 8, !tbaa !102
  store ptr %1, ptr %4, align 8, !tbaa !71
  %5 = load ptr, ptr %4, align 8, !tbaa !71
  ret ptr %5
}

; Function Attrs: mustprogress nounwind uwtable
define linkonce_odr hidden noundef ptr @_ZNKSt6vectorIiSaIiEE4dataEv(ptr noundef nonnull align 8 dereferenceable(24) %0) #0 comdat align 2 {
  %2 = alloca ptr, align 8
  store ptr %0, ptr %2, align 8, !tbaa !102
  %3 = load ptr, ptr %2, align 8
  %4 = getelementptr inbounds nuw %"struct.std::_Vector_base", ptr %3, i32 0, i32 0
  %5 = getelementptr inbounds nuw %"struct.std::_Vector_base<int, std::allocator<int>>::_Vector_impl_data", ptr %4, i32 0, i32 0
  %6 = load ptr, ptr %5, align 8, !tbaa !113
  %7 = call noundef ptr @_ZNKSt6vectorIiSaIiEE11_M_data_ptrIiEEPT_S4_(ptr noundef nonnull align 8 dereferenceable(24) %3, ptr noundef %6) #7
  ret ptr %7
}

; Function Attrs: mustprogress nounwind uwtable
define linkonce_odr hidden noundef i64 @_ZNKSt6vectorIiSaIiEE4sizeEv(ptr noundef nonnull align 8 dereferenceable(24) %0) #0 comdat align 2 {
  %2 = alloca ptr, align 8
  store ptr %0, ptr %2, align 8, !tbaa !102
  %3 = load ptr, ptr %2, align 8
  %4 = getelementptr inbounds nuw %"struct.std::_Vector_base", ptr %3, i32 0, i32 0
  %5 = getelementptr inbounds nuw %"struct.std::_Vector_base<int, std::allocator<int>>::_Vector_impl_data", ptr %4, i32 0, i32 1
  %6 = load ptr, ptr %5, align 8, !tbaa !111
  %7 = getelementptr inbounds nuw %"struct.std::_Vector_base", ptr %3, i32 0, i32 0
  %8 = getelementptr inbounds nuw %"struct.std::_Vector_base<int, std::allocator<int>>::_Vector_impl_data", ptr %7, i32 0, i32 0
  %9 = load ptr, ptr %8, align 8, !tbaa !113
  %10 = ptrtoint ptr %6 to i64
  %11 = ptrtoint ptr %9 to i64
  %12 = sub i64 %10, %11
  %13 = sdiv exact i64 %12, 4
  ret i64 %13
}

; Function Attrs: inlinehint mustprogress nounwind uwtable
define linkonce_odr hidden void @_ZN2cv7MatStepC2Ev(ptr noundef nonnull align 8 dereferenceable(24) %0) unnamed_addr #6 comdat align 2 {
  %2 = alloca ptr, align 8
  store ptr %0, ptr %2, align 8, !tbaa !83
  %3 = load ptr, ptr %2, align 8
  %4 = getelementptr inbounds nuw %"struct.cv::MatStep", ptr %3, i32 0, i32 1
  %5 = getelementptr inbounds [2 x i64], ptr %4, i64 0, i64 0
  %6 = getelementptr inbounds nuw %"struct.cv::MatStep", ptr %3, i32 0, i32 0
  store ptr %5, ptr %6, align 8, !tbaa !85
  %7 = getelementptr inbounds nuw %"struct.cv::MatStep", ptr %3, i32 0, i32 0
  %8 = load ptr, ptr %7, align 8, !tbaa !85
  %9 = getelementptr inbounds i64, ptr %8, i64 1
  store i64 0, ptr %9, align 8, !tbaa !31
  %10 = getelementptr inbounds nuw %"struct.cv::MatStep", ptr %3, i32 0, i32 0
  %11 = load ptr, ptr %10, align 8, !tbaa !85
  %12 = getelementptr inbounds i64, ptr %11, i64 0
  store i64 0, ptr %12, align 8, !tbaa !31
  ret void
}

; Function Attrs: inlinehint mustprogress nounwind uwtable
define linkonce_odr hidden void @_ZN2cv7MatSizeC2EPi(ptr noundef nonnull align 8 dereferenceable(8) %0, ptr noundef %1) unnamed_addr #6 comdat align 2 {
  %3 = alloca ptr, align 8
  %4 = alloca ptr, align 8
  store ptr %0, ptr %3, align 8, !tbaa !65
  store ptr %1, ptr %4, align 8, !tbaa !71
  %5 = load ptr, ptr %3, align 8
  %6 = getelementptr inbounds nuw %"struct.cv::MatSize", ptr %5, i32 0, i32 0
  %7 = load ptr, ptr %4, align 8, !tbaa !71
  store ptr %7, ptr %6, align 8, !tbaa !67
  ret void
}

; Function Attrs: mustprogress uwtable
define void @_ZN2cv3MatC2ERKSt6vectorIiSaIiEEiPvPKm(ptr noundef nonnull align 8 dereferenceable(96) %0, ptr noundef nonnull align 8 dereferenceable(24) %1, i32 noundef %2, ptr noundef %3, ptr noundef %4) unnamed_addr #1 align 2 {
  %6 = alloca ptr, align 8
  %7 = alloca ptr, align 8
  %8 = alloca i32, align 4
  %9 = alloca ptr, align 8
  %10 = alloca ptr, align 8
  store ptr %0, ptr %6, align 8, !tbaa !34
  store ptr %1, ptr %7, align 8, !tbaa !102
  store i32 %2, ptr %8, align 4, !tbaa !26
  store ptr %3, ptr %9, align 8, !tbaa !25
  store ptr %4, ptr %10, align 8, !tbaa !27
  %11 = load ptr, ptr %6, align 8
  %12 = getelementptr inbounds nuw %"class.cv::Mat", ptr %11, i32 0, i32 0
  store i32 1124007936, ptr %12, align 8, !tbaa !79
  %13 = getelementptr inbounds nuw %"class.cv::Mat", ptr %11, i32 0, i32 1
  store i32 0, ptr %13, align 4, !tbaa !72
  %14 = getelementptr inbounds nuw %"class.cv::Mat", ptr %11, i32 0, i32 2
  store i32 0, ptr %14, align 8, !tbaa !78
  %15 = getelementptr inbounds nuw %"class.cv::Mat", ptr %11, i32 0, i32 3
  store i32 0, ptr %15, align 4, !tbaa !77
  %16 = getelementptr inbounds nuw %"class.cv::Mat", ptr %11, i32 0, i32 4
  store ptr null, ptr %16, align 8, !tbaa !89
  %17 = getelementptr inbounds nuw %"class.cv::Mat", ptr %11, i32 0, i32 5
  store ptr null, ptr %17, align 8, !tbaa !90
  %18 = getelementptr inbounds nuw %"class.cv::Mat", ptr %11, i32 0, i32 6
  store ptr null, ptr %18, align 8, !tbaa !92
  %19 = getelementptr inbounds nuw %"class.cv::Mat", ptr %11, i32 0, i32 7
  store ptr null, ptr %19, align 8, !tbaa !91
  %20 = getelementptr inbounds nuw %"class.cv::Mat", ptr %11, i32 0, i32 8
  store ptr null, ptr %20, align 8, !tbaa !94
  %21 = getelementptr inbounds nuw %"class.cv::Mat", ptr %11, i32 0, i32 9
  store ptr null, ptr %21, align 8, !tbaa !88
  %22 = getelementptr inbounds nuw %"class.cv::Mat", ptr %11, i32 0, i32 10
  %23 = getelementptr inbounds nuw %"class.cv::Mat", ptr %11, i32 0, i32 2
  call void @_ZN2cv7MatSizeC2EPi(ptr noundef nonnull align 8 dereferenceable(8) %22, ptr noundef %23) #7
  %24 = getelementptr inbounds nuw %"class.cv::Mat", ptr %11, i32 0, i32 11
  call void @_ZN2cv7MatStepC2Ev(ptr noundef nonnull align 8 dereferenceable(24) %24) #7
  %25 = load i32, ptr %8, align 4, !tbaa !26
  %26 = and i32 %25, 4095
  %27 = getelementptr inbounds nuw %"class.cv::Mat", ptr %11, i32 0, i32 0
  %28 = load i32, ptr %27, align 8, !tbaa !79
  %29 = or i32 %28, %26
  store i32 %29, ptr %27, align 8, !tbaa !79
  %30 = load ptr, ptr %9, align 8, !tbaa !25
  %31 = getelementptr inbounds nuw %"class.cv::Mat", ptr %11, i32 0, i32 4
  store ptr %30, ptr %31, align 8, !tbaa !89
  %32 = getelementptr inbounds nuw %"class.cv::Mat", ptr %11, i32 0, i32 5
  store ptr %30, ptr %32, align 8, !tbaa !90
  %33 = load ptr, ptr %7, align 8, !tbaa !102
  %34 = call noundef i64 @_ZNKSt6vectorIiSaIiEE4sizeEv(ptr noundef nonnull align 8 dereferenceable(24) %33) #7
  %35 = trunc i64 %34 to i32
  %36 = load ptr, ptr %7, align 8, !tbaa !102
  %37 = call noundef ptr @_ZNKSt6vectorIiSaIiEE4dataEv(ptr noundef nonnull align 8 dereferenceable(24) %36) #7
  %38 = load ptr, ptr %10, align 8, !tbaa !27
  call void @_ZN2cv7setSizeERNS_3MatEiPKiPKmb(ptr noundef nonnull align 8 dereferenceable(96) %11, i32 noundef %35, ptr noundef %37, ptr noundef %38, i1 noundef zeroext true)
  call void @_ZN2cv11finalizeHdrERNS_3MatE(ptr noundef nonnull align 8 dereferenceable(96) %11)
  ret void
}