; Function Attrs: mustprogress uwtable
define void @_ZN2cv3MatC2ERKSt6vectorIiSaIiEEiPvPKm(ptr noundef nonnull align 8 dereferenceable(96) initializes((4, 64)) %0, ptr noundef nonnull readonly align 8 captures(none) dereferenceable(24) %1, i32 noundef %2, ptr noundef %3, ptr noundef %4) unnamed_addr #1 align 2 {
  %6 = getelementptr inbounds nuw i8, ptr %0, i64 4
  %7 = getelementptr inbounds nuw i8, ptr %0, i64 8
  %8 = getelementptr inbounds nuw i8, ptr %0, i64 16
  %9 = getelementptr inbounds nuw i8, ptr %0, i64 24
  %10 = getelementptr inbounds nuw i8, ptr %0, i64 64
  tail call void @llvm.memset.p0.i64(ptr noundef nonnull align 4 dereferenceable(60) %6, i8 0, i64 60, i1 false)
  store ptr %7, ptr %10, align 8, !tbaa !49
  %11 = getelementptr inbounds nuw i8, ptr %0, i64 72
  %12 = getelementptr inbounds nuw i8, ptr %0, i64 80
  store ptr %12, ptr %11, align 8, !tbaa !63
  tail call void @llvm.memset.p0.i64(ptr noundef nonnull align 8 dereferenceable(16) %12, i8 0, i64 16, i1 false)
  %13 = and i32 %2, 4095
  %14 = or disjoint i32 %13, 1124007936
  store i32 %14, ptr %0, align 8, !tbaa !61
  store ptr %3, ptr %8, align 8, !tbaa !67
  store ptr %3, ptr %9, align 8, !tbaa !68
  %15 = getelementptr inbounds nuw i8, ptr %1, i64 8
  %16 = load ptr, ptr %15, align 8, !tbaa !75
  %17 = load ptr, ptr %1, align 8, !tbaa !77
  %18 = ptrtoint ptr %16 to i64
  %19 = ptrtoint ptr %17 to i64
  %20 = sub i64 %18, %19
  %21 = lshr exact i64 %20, 2
  %22 = trunc i64 %21 to i32
  tail call void @_ZN2cv7setSizeERNS_3MatEiPKiPKmb(ptr noundef nonnull align 8 dereferenceable(96) %0, i32 noundef %22, ptr noundef %17, ptr noundef %4, i1 noundef zeroext true)
  tail call void @_ZN2cv11finalizeHdrERNS_3MatE(ptr noundef nonnull align 8 dereferenceable(96) %0)
  ret void
}